; Function Attrs: mustprogress nounwind uwtable
define dso_local void @_ZN4llvm4yaml6Output9paddedKeyENS_9StringRefE(ptr noundef nonnull align 8 captures(none) dereferenceable(128) %0, ptr %1, i64 %2) local_unnamed_addr #6 align 2 {
  %4 = tail call noundef i32 @_ZN4llvm4yaml11needsQuotesENS_9StringRefEb(ptr %1, i64 %2, i1 noundef zeroext false)
  tail call void @_ZN4llvm4yaml6Output6outputENS_9StringRefENS0_11QuotingTypeE(ptr noundef nonnull align 8 dereferenceable(128) %0, ptr %1, i64 %2, i32 noundef %4)
  %5 = getelementptr inbounds nuw i8, ptr %0, i64 80
  %6 = load i32, ptr %5, align 8
  %7 = add i32 %6, 1
  store i32 %7, ptr %5, align 8
  %8 = getelementptr inbounds nuw i8, ptr %0, i64 16
  %9 = load ptr, ptr %8, align 8
  %10 = getelementptr inbounds nuw i8, ptr %9, i64 24
  %11 = load ptr, ptr %10, align 8
  %12 = getelementptr inbounds nuw i8, ptr %9, i64 32
  %13 = load ptr, ptr %12, align 8
  %14 = icmp eq ptr %11, %13
  br i1 %14, label %15, label %17

15:                                               ; preds = %3
  %16 = tail call noundef nonnull align 8 dereferenceable(48) ptr @_ZN4llvm11raw_ostream5writeEPKcm(ptr noundef nonnull align 8 dereferenceable(48) %9, ptr noundef nonnull @.str.33, i64 noundef 1) #32
  br label %_ZN4llvm4yaml6Output6outputENS_9StringRefE.exit

17:                                               ; preds = %3
  store i8 58, ptr %13, align 1
  %18 = load ptr, ptr %12, align 8
  %19 = getelementptr inbounds nuw i8, ptr %18, i64 1
  store ptr %19, ptr %12, align 8
  br label %_ZN4llvm4yaml6Output6outputENS_9StringRefE.exit

_ZN4llvm4yaml6Output6outputENS_9StringRefE.exit:  ; preds = %15, %17
  %20 = icmp ult i64 %2, 16
  br i1 %20, label %21, label %24

21:                                               ; preds = %_ZN4llvm4yaml6Output6outputENS_9StringRefE.exit
  %22 = getelementptr inbounds nuw i8, ptr @.str.34, i64 %2
  %23 = tail call noundef i64 @strlen(ptr noundef nonnull dereferenceable(1) %22) #32
  br label %24

24:                                               ; preds = %_ZN4llvm4yaml6Output6outputENS_9StringRefE.exit, %21
  %.str.15.sink = phi ptr [ %22, %21 ], [ @.str.15, %_ZN4llvm4yaml6Output6outputENS_9StringRefE.exit ]
  %.sink = phi i64 [ %23, %21 ], [ 1, %_ZN4llvm4yaml6Output6outputENS_9StringRefE.exit ]
  %25 = getelementptr inbounds nuw i8, ptr %0, i64 96
  store ptr %.str.15.sink, ptr %25, align 8
  %26 = getelementptr inbounds nuw i8, ptr %0, i64 104
  store i64 %.sink, ptr %26, align 8
  ret void
}